target datalayout = "e-m:e-p270:32:32-p271:32:32-p272:64:64-i64:64-i128:128-f80:128-n8:16:32:64-S128"
target triple = "x86_64-pc-linux-gnu"

%struct.SDL_AtomicInt = type { i32 }
%struct.VulkanRenderer = type { ptr, ptr, %struct.VkPhysicalDeviceProperties2, %struct.VkPhysicalDeviceDriverProperties, %struct.VkPhysicalDeviceFeatures, ptr, i8, i8, i8, i8, i8, i8, i32, i32, %struct.VulkanExtensions, i8, i8, i8, i8, ptr, %struct.VkPhysicalDeviceMemoryProperties, i8, ptr, i32, i32, i32, ptr, ptr, i32, i32, %struct.VulkanFencePool, ptr, ptr, ptr, ptr, ptr, ptr, ptr, i32, i32, ptr, i32, i32, %struct.SDL_AtomicInt, i32, ptr, i32, i32, ptr, i32, i32, ptr, i32, i32, ptr, i32, i32, ptr, i32, i32, ptr, i32, i32, ptr, i32, i32, ptr, ptr, ptr, ptr, ptr, ptr, ptr, ptr, ptr, ptr, ptr, i8, ptr, i32, i32, ptr, ptr, ptr, ptr, ptr, ptr, ptr, ptr, ptr, ptr, ptr, ptr, ptr, ptr, ptr, ptr, ptr, ptr, ptr, ptr, ptr, ptr, ptr, ptr, ptr, ptr, ptr, ptr, ptr, ptr, ptr, ptr, ptr, ptr, ptr, ptr, ptr, ptr, ptr, ptr, ptr, ptr, ptr, ptr, ptr, ptr, ptr, ptr, ptr, ptr, ptr, ptr, ptr, ptr, ptr, ptr, ptr, ptr, ptr, ptr, ptr, ptr, ptr, ptr, ptr, ptr, ptr, ptr, ptr, ptr, ptr, ptr, ptr, ptr, ptr, ptr, ptr, ptr, ptr, ptr, ptr, ptr, ptr, ptr, ptr, ptr, ptr, ptr, ptr, ptr, ptr, ptr, ptr, ptr, ptr, ptr, ptr, ptr, ptr, ptr, ptr, ptr, ptr, ptr, ptr, ptr, ptr, ptr, ptr, ptr }
%struct.VkPhysicalDeviceProperties2 = type { i32, ptr, %struct.VkPhysicalDeviceProperties }
%struct.VkPhysicalDeviceProperties = type { i32, i32, i32, i32, i32, [256 x i8], [16 x i8], %struct.VkPhysicalDeviceLimits, %struct.VkPhysicalDeviceSparseProperties }
%struct.VkPhysicalDeviceLimits = type { i32, i32, i32, i32, i32, i32, i32, i32, i32, i32, i32, i64, i64, i32, i32, i32, i32, i32, i32, i32, i32, i32, i32, i32, i32, i32, i32, i32, i32, i32, i32, i32, i32, i32, i32, i32, i32, i32, i32, i32, i32, i32, i32, i32, i32, i32, i32, i32, i32, i32, i32, i32, [3 x i32], i32, [3 x i32], i32, i32, i32, i32, i32, float, float, i32, [2 x i32], [2 x float], i32, i64, i64, i64, i64, i32, i32, i32, i32, float, float, i32, i32, i32, i32, i32, i32, i32, i32, i32, i32, i32, i32, i32, i32, i32, i32, float, i32, i32, i32, i32, [2 x float], [2 x float], float, float, i32, i32, i64, i64, i64 }
%struct.VkPhysicalDeviceSparseProperties = type { i32, i32, i32, i32, i32 }
%struct.VkPhysicalDeviceDriverProperties = type { i32, ptr, i32, [256 x i8], [256 x i8], %struct.VkConformanceVersion }
%struct.VkConformanceVersion = type { i8, i8, i8, i8 }
%struct.VkPhysicalDeviceFeatures = type { i32, i32, i32, i32, i32, i32, i32, i32, i32, i32, i32, i32, i32, i32, i32, i32, i32, i32, i32, i32, i32, i32, i32, i32, i32, i32, i32, i32, i32, i32, i32, i32, i32, i32, i32, i32, i32, i32, i32, i32, i32, i32, i32, i32, i32, i32, i32, i32, i32, i32, i32, i32, i32, i32, i32 }
%struct.VulkanExtensions = type { i8, i8, i8, i8, i8 }
%struct.VkPhysicalDeviceMemoryProperties = type { i32, [32 x %struct.VkMemoryType], i32, [16 x %struct.VkMemoryHeap] }
%struct.VkMemoryType = type { i32, i32 }
%struct.VkMemoryHeap = type { i64, i32 }
%struct.VulkanFencePool = type { ptr, ptr, i32, i32 }
%struct.VulkanCommandBuffer = type { %struct.CommandBufferCommonHeader, ptr, ptr, ptr, ptr, i32, i32, ptr, i32, i32, ptr, i32, i32, ptr, ptr, [4 x ptr], i32, [4 x ptr], i32, ptr, %struct.VkViewport, %struct.VkRect2D, [4 x float], i8, ptr, i8, i8, i8, i8, i8, i8, i8, i8, i8, i8, ptr, ptr, ptr, ptr, ptr, ptr, ptr, [16 x ptr], [16 x i64], i32, i8, [16 x ptr], [16 x ptr], [8 x ptr], [8 x ptr], [16 x ptr], [16 x ptr], [8 x ptr], [8 x ptr], [8 x ptr], i32, [8 x ptr], [16 x ptr], [16 x ptr], [8 x ptr], [8 x ptr], [4 x ptr], [4 x ptr], [4 x ptr], ptr, i32, i32, ptr, i32, i32, ptr, i32, i32, ptr, i32, i32, ptr, i32, i32, ptr, i32, i32, ptr, i32, i32, ptr, i8, i8 }
%struct.CommandBufferCommonHeader = type { ptr, %struct.RenderPass, i8, %struct.Pass, i8, %struct.Pass, i8, i8, i8 }
%struct.RenderPass = type { ptr, i8, [4 x ptr], i32, ptr }
%struct.Pass = type { ptr, i8 }
%struct.VkViewport = type { float, float, float, float, float, float }
%struct.VkRect2D = type { %struct.VkOffset2D, %struct.VkExtent2D }
%struct.VkOffset2D = type { i32, i32 }
%struct.VkExtent2D = type { i32, i32 }
%struct.VulkanBuffer = type { ptr, i32, ptr, ptr, i32, i32, i64, %struct.SDL_AtomicInt, i8, i8, ptr }
%struct.VkBufferMemoryBarrier = type { i32, ptr, i32, i32, i32, i32, ptr, i64, i64 }

@.str.210 = private unnamed_addr constant [41 x i8] c"Unrecognized buffer source barrier type!\00", align 1
@.str.211 = private unnamed_addr constant [46 x i8] c"Unrecognized buffer destination barrier type!\00", align 1
@.str.212 = private unnamed_addr constant [34 x i8] c"Buffer has no default usage mode!\00", align 1

; Function Attrs: nounwind uwtable
define internal void @VULKAN_INTERNAL_BufferMemoryBarrier(ptr noundef %0, ptr noundef %1, i32 noundef %2, i32 noundef %3, ptr noundef %4) #0 {
  %6 = alloca ptr, align 8
  %7 = alloca ptr, align 8
  %8 = alloca i32, align 4
  %9 = alloca i32, align 4
  %10 = alloca ptr, align 8
  %11 = alloca i32, align 4
  %12 = alloca i32, align 4
  %13 = alloca %struct.VkBufferMemoryBarrier, align 8
  %14 = alloca i32, align 4
  store ptr %0, ptr %6, align 8
  store ptr %1, ptr %7, align 8
  store i32 %2, ptr %8, align 4
  store i32 %3, ptr %9, align 4
  store ptr %4, ptr %10, align 8
  call void @llvm.lifetime.start.p0(i64 4, ptr %11) #9
  store i32 0, ptr %11, align 4
  call void @llvm.lifetime.start.p0(i64 4, ptr %12) #9
  store i32 0, ptr %12, align 4
  call void @llvm.lifetime.start.p0(i64 56, ptr %13) #9
  %15 = getelementptr inbounds nuw %struct.VkBufferMemoryBarrier, ptr %13, i32 0, i32 0
  store i32 44, ptr %15, align 8
  %16 = getelementptr inbounds nuw %struct.VkBufferMemoryBarrier, ptr %13, i32 0, i32 1
  store ptr null, ptr %16, align 8
  %17 = getelementptr inbounds nuw %struct.VkBufferMemoryBarrier, ptr %13, i32 0, i32 2
  store i32 0, ptr %17, align 8
  %18 = getelementptr inbounds nuw %struct.VkBufferMemoryBarrier, ptr %13, i32 0, i32 3
  store i32 0, ptr %18, align 4
  %19 = getelementptr inbounds nuw %struct.VkBufferMemoryBarrier, ptr %13, i32 0, i32 4
  store i32 -1, ptr %19, align 8
  %20 = getelementptr inbounds nuw %struct.VkBufferMemoryBarrier, ptr %13, i32 0, i32 5
  store i32 -1, ptr %20, align 4
  %21 = load ptr, ptr %10, align 8
  %22 = getelementptr inbounds nuw %struct.VulkanBuffer, ptr %21, i32 0, i32 2
  %23 = load ptr, ptr %22, align 8
  %24 = getelementptr inbounds nuw %struct.VkBufferMemoryBarrier, ptr %13, i32 0, i32 6
  store ptr %23, ptr %24, align 8
  %25 = getelementptr inbounds nuw %struct.VkBufferMemoryBarrier, ptr %13, i32 0, i32 7
  store i64 0, ptr %25, align 8
  %26 = load ptr, ptr %10, align 8
  %27 = getelementptr inbounds nuw %struct.VulkanBuffer, ptr %26, i32 0, i32 6
  %28 = load i64, ptr %27, align 8
  %29 = getelementptr inbounds nuw %struct.VkBufferMemoryBarrier, ptr %13, i32 0, i32 8
  store i64 %28, ptr %29, align 8
  %30 = load i32, ptr %8, align 4
  %31 = icmp eq i32 %30, 0
  br i1 %31, label %32, label %34

32:                                               ; preds = %5
  store i32 4096, ptr %11, align 4
  %33 = getelementptr inbounds nuw %struct.VkBufferMemoryBarrier, ptr %13, i32 0, i32 2
  store i32 2048, ptr %33, align 8
  br label %77

34:                                               ; preds = %5
  %35 = load i32, ptr %8, align 4
  %36 = icmp eq i32 %35, 1
  br i1 %36, label %37, label %39

37:                                               ; preds = %34
  store i32 4096, ptr %11, align 4
  %38 = getelementptr inbounds nuw %struct.VkBufferMemoryBarrier, ptr %13, i32 0, i32 2
  store i32 4096, ptr %38, align 8
  br label %76

39:                                               ; preds = %34
  %40 = load i32, ptr %8, align 4
  %41 = icmp eq i32 %40, 2
  br i1 %41, label %42, label %44

42:                                               ; preds = %39
  store i32 4, ptr %11, align 4
  %43 = getelementptr inbounds nuw %struct.VkBufferMemoryBarrier, ptr %13, i32 0, i32 2
  store i32 4, ptr %43, align 8
  br label %75

44:                                               ; preds = %39
  %45 = load i32, ptr %8, align 4
  %46 = icmp eq i32 %45, 3
  br i1 %46, label %47, label %49

47:                                               ; preds = %44
  store i32 4, ptr %11, align 4
  %48 = getelementptr inbounds nuw %struct.VkBufferMemoryBarrier, ptr %13, i32 0, i32 2
  store i32 2, ptr %48, align 8
  br label %74

49:                                               ; preds = %44
  %50 = load i32, ptr %8, align 4
  %51 = icmp eq i32 %50, 4
  br i1 %51, label %52, label %54

52:                                               ; preds = %49
  store i32 2, ptr %11, align 4
  %53 = getelementptr inbounds nuw %struct.VkBufferMemoryBarrier, ptr %13, i32 0, i32 2
  store i32 1, ptr %53, align 8
  br label %73

54:                                               ; preds = %49
  %55 = load i32, ptr %8, align 4
  %56 = icmp eq i32 %55, 5
  br i1 %56, label %57, label %59

57:                                               ; preds = %54
  store i32 136, ptr %11, align 4
  %58 = getelementptr inbounds nuw %struct.VkBufferMemoryBarrier, ptr %13, i32 0, i32 2
  store i32 32, ptr %58, align 8
  br label %72

59:                                               ; preds = %54
  %60 = load i32, ptr %8, align 4
  %61 = icmp eq i32 %60, 6
  br i1 %61, label %62, label %64

62:                                               ; preds = %59
  store i32 2048, ptr %11, align 4
  %63 = getelementptr inbounds nuw %struct.VkBufferMemoryBarrier, ptr %13, i32 0, i32 2
  store i32 32, ptr %63, align 8
  br label %71

64:                                               ; preds = %59
  %65 = load i32, ptr %8, align 4
  %66 = icmp eq i32 %65, 7
  br i1 %66, label %67, label %69

67:                                               ; preds = %64
  store i32 2048, ptr %11, align 4
  %68 = getelementptr inbounds nuw %struct.VkBufferMemoryBarrier, ptr %13, i32 0, i32 2
  store i32 96, ptr %68, align 8
  br label %70

69:                                               ; preds = %64
  call void (i32, ptr, ...) @SDL_LogError_REAL(i32 noundef 9, ptr noundef @.str.210)
  store i32 1, ptr %14, align 4
  br label %136

70:                                               ; preds = %67
  br label %71

71:                                               ; preds = %70, %62
  br label %72

72:                                               ; preds = %71, %57
  br label %73

73:                                               ; preds = %72, %52
  br label %74

74:                                               ; preds = %73, %47
  br label %75

75:                                               ; preds = %74, %42
  br label %76

76:                                               ; preds = %75, %37
  br label %77

77:                                               ; preds = %76, %32
  %78 = load i32, ptr %9, align 4
  %79 = icmp eq i32 %78, 0
  br i1 %79, label %80, label %82

80:                                               ; preds = %77
  store i32 4096, ptr %12, align 4
  %81 = getelementptr inbounds nuw %struct.VkBufferMemoryBarrier, ptr %13, i32 0, i32 3
  store i32 2048, ptr %81, align 4
  br label %125

82:                                               ; preds = %77
  %83 = load i32, ptr %9, align 4
  %84 = icmp eq i32 %83, 1
  br i1 %84, label %85, label %87

85:                                               ; preds = %82
  store i32 4096, ptr %12, align 4
  %86 = getelementptr inbounds nuw %struct.VkBufferMemoryBarrier, ptr %13, i32 0, i32 3
  store i32 4096, ptr %86, align 4
  br label %124

87:                                               ; preds = %82
  %88 = load i32, ptr %9, align 4
  %89 = icmp eq i32 %88, 2
  br i1 %89, label %90, label %92

90:                                               ; preds = %87
  store i32 4, ptr %12, align 4
  %91 = getelementptr inbounds nuw %struct.VkBufferMemoryBarrier, ptr %13, i32 0, i32 3
  store i32 4, ptr %91, align 4
  br label %123

92:                                               ; preds = %87
  %93 = load i32, ptr %9, align 4
  %94 = icmp eq i32 %93, 3
  br i1 %94, label %95, label %97

95:                                               ; preds = %92
  store i32 4, ptr %12, align 4
  %96 = getelementptr inbounds nuw %struct.VkBufferMemoryBarrier, ptr %13, i32 0, i32 3
  store i32 2, ptr %96, align 4
  br label %122

97:                                               ; preds = %92
  %98 = load i32, ptr %9, align 4
  %99 = icmp eq i32 %98, 4
  br i1 %99, label %100, label %102

100:                                              ; preds = %97
  store i32 2, ptr %12, align 4
  %101 = getelementptr inbounds nuw %struct.VkBufferMemoryBarrier, ptr %13, i32 0, i32 3
  store i32 1, ptr %101, align 4
  br label %121

102:                                              ; preds = %97
  %103 = load i32, ptr %9, align 4
  %104 = icmp eq i32 %103, 5
  br i1 %104, label %105, label %107

105:                                              ; preds = %102
  store i32 136, ptr %12, align 4
  %106 = getelementptr inbounds nuw %struct.VkBufferMemoryBarrier, ptr %13, i32 0, i32 3
  store i32 32, ptr %106, align 4
  br label %120

107:                                              ; preds = %102
  %108 = load i32, ptr %9, align 4
  %109 = icmp eq i32 %108, 6
  br i1 %109, label %110, label %112

110:                                              ; preds = %107
  store i32 2048, ptr %12, align 4
  %111 = getelementptr inbounds nuw %struct.VkBufferMemoryBarrier, ptr %13, i32 0, i32 3
  store i32 32, ptr %111, align 4
  br label %119

112:                                              ; preds = %107
  %113 = load i32, ptr %9, align 4
  %114 = icmp eq i32 %113, 7
  br i1 %114, label %115, label %117

115:                                              ; preds = %112
  store i32 2048, ptr %12, align 4
  %116 = getelementptr inbounds nuw %struct.VkBufferMemoryBarrier, ptr %13, i32 0, i32 3
  store i32 96, ptr %116, align 4
  br label %118

117:                                              ; preds = %112
  call void (i32, ptr, ...) @SDL_LogError_REAL(i32 noundef 9, ptr noundef @.str.211)
  store i32 1, ptr %14, align 4
  br label %136

118:                                              ; preds = %115
  br label %119

119:                                              ; preds = %118, %110
  br label %120

120:                                              ; preds = %119, %105
  br label %121

121:                                              ; preds = %120, %100
  br label %122

122:                                              ; preds = %121, %95
  br label %123

123:                                              ; preds = %122, %90
  br label %124

124:                                              ; preds = %123, %85
  br label %125

125:                                              ; preds = %124, %80
  %126 = load ptr, ptr %6, align 8
  %127 = getelementptr inbounds nuw %struct.VulkanRenderer, ptr %126, i32 0, i32 128
  %128 = load ptr, ptr %127, align 8
  %129 = load ptr, ptr %7, align 8
  %130 = getelementptr inbounds nuw %struct.VulkanCommandBuffer, ptr %129, i32 0, i32 2
  %131 = load ptr, ptr %130, align 8
  %132 = load i32, ptr %11, align 4
  %133 = load i32, ptr %12, align 4
  call void %128(ptr noundef %131, i32 noundef %132, i32 noundef %133, i32 noundef 0, i32 noundef 0, ptr noundef null, i32 noundef 1, ptr noundef %13, i32 noundef 0, ptr noundef null)
  %134 = load ptr, ptr %10, align 8
  %135 = getelementptr inbounds nuw %struct.VulkanBuffer, ptr %134, i32 0, i32 8
  store i8 1, ptr %135, align 4
  store i32 0, ptr %14, align 4
  br label %136

136:                                              ; preds = %125, %117, %69
  call void @llvm.lifetime.end.p0(i64 56, ptr %13) #9
  call void @llvm.lifetime.end.p0(i64 4, ptr %12) #9
  call void @llvm.lifetime.end.p0(i64 4, ptr %11) #9
  %137 = load i32, ptr %14, align 4
  switch i32 %137, label %139 [
    i32 0, label %138
    i32 1, label %138
  ]

138:                                              ; preds = %136, %136
  ret void

139:                                              ; preds = %136
  unreachable
}

; Function Attrs: nounwind uwtable
define internal i32 @VULKAN_INTERNAL_DefaultBufferUsageMode(ptr noundef %0) #0 {
  %2 = alloca i32, align 4
  %3 = alloca ptr, align 8
  store ptr %0, ptr %3, align 8
  %4 = load ptr, ptr %3, align 8
  %5 = getelementptr inbounds nuw %struct.VulkanBuffer, ptr %4, i32 0, i32 5
  %6 = load i32, ptr %5, align 4
  %7 = and i32 %6, 1
  %8 = icmp ne i32 %7, 0
  br i1 %8, label %9, label %10

9:                                                ; preds = %1
  store i32 2, ptr %2, align 4
  br label %46

10:                                               ; preds = %1
  %11 = load ptr, ptr %3, align 8
  %12 = getelementptr inbounds nuw %struct.VulkanBuffer, ptr %11, i32 0, i32 5
  %13 = load i32, ptr %12, align 4
  %14 = and i32 %13, 2
  %15 = icmp ne i32 %14, 0
  br i1 %15, label %16, label %17

16:                                               ; preds = %10
  store i32 3, ptr %2, align 4
  br label %46

17:                                               ; preds = %10
  %18 = load ptr, ptr %3, align 8
  %19 = getelementptr inbounds nuw %struct.VulkanBuffer, ptr %18, i32 0, i32 5
  %20 = load i32, ptr %19, align 4
  %21 = and i32 %20, 4
  %22 = icmp ne i32 %21, 0
  br i1 %22, label %23, label %24

23:                                               ; preds = %17
  store i32 4, ptr %2, align 4
  br label %46

24:                                               ; preds = %17
  %25 = load ptr, ptr %3, align 8
  %26 = getelementptr inbounds nuw %struct.VulkanBuffer, ptr %25, i32 0, i32 5
  %27 = load i32, ptr %26, align 4
  %28 = and i32 %27, 8
  %29 = icmp ne i32 %28, 0
  br i1 %29, label %30, label %31

30:                                               ; preds = %24
  store i32 5, ptr %2, align 4
  br label %46

31:                                               ; preds = %24
  %32 = load ptr, ptr %3, align 8
  %33 = getelementptr inbounds nuw %struct.VulkanBuffer, ptr %32, i32 0, i32 5
  %34 = load i32, ptr %33, align 4
  %35 = and i32 %34, 16
  %36 = icmp ne i32 %35, 0
  br i1 %36, label %37, label %38

37:                                               ; preds = %31
  store i32 6, ptr %2, align 4
  br label %46

38:                                               ; preds = %31
  %39 = load ptr, ptr %3, align 8
  %40 = getelementptr inbounds nuw %struct.VulkanBuffer, ptr %39, i32 0, i32 5
  %41 = load i32, ptr %40, align 4
  %42 = and i32 %41, 32
  %43 = icmp ne i32 %42, 0
  br i1 %43, label %44, label %45

44:                                               ; preds = %38
  store i32 7, ptr %2, align 4
  br label %46

45:                                               ; preds = %38
  call void (i32, ptr, ...) @SDL_LogError_REAL(i32 noundef 9, ptr noundef @.str.212)
  store i32 2, ptr %2, align 4
  br label %46

46:                                               ; preds = %45, %44, %37, %30, %23, %16, %9
  %47 = load i32, ptr %2, align 4
  ret i32 %47
}

; Function Attrs: nounwind uwtable
define internal void @VULKAN_INTERNAL_BufferTransitionToDefaultUsage(ptr noundef %0, ptr noundef %1, i32 noundef %2, ptr noundef %3) #0 {
  %5 = alloca ptr, align 8
  %6 = alloca ptr, align 8
  %7 = alloca i32, align 4
  %8 = alloca ptr, align 8
  store ptr %0, ptr %5, align 8
  store ptr %1, ptr %6, align 8
  store i32 %2, ptr %7, align 4
  store ptr %3, ptr %8, align 8
  %9 = load ptr, ptr %5, align 8
  %10 = load ptr, ptr %6, align 8
  %11 = load i32, ptr %7, align 4
  %12 = load ptr, ptr %8, align 8
  %13 = call i32 @VULKAN_INTERNAL_DefaultBufferUsageMode(ptr noundef %12)
  %14 = load ptr, ptr %8, align 8
  call void @VULKAN_INTERNAL_BufferMemoryBarrier(ptr noundef %9, ptr noundef %10, i32 noundef %11, i32 noundef %13, ptr noundef %14)
  ret void
}