; Function Attrs: nounwind uwtable
define internal fastcc void @VULKAN_INTERNAL_BufferTransitionToDefaultUsage(ptr noundef readonly captures(none) %0, ptr noundef readonly captures(none) %1, i32 noundef range(i32 0, 8) %2, ptr noundef captures(none) %3) unnamed_addr #0 {
  %5 = alloca %struct.VkBufferMemoryBarrier, align 8
  %6 = getelementptr i8, ptr %3, i64 36
  %.val = load i32, ptr %6, align 4
  %7 = and i32 %.val, 1
  %.not.i = icmp eq i32 %7, 0
  br i1 %.not.i, label %8, label %VULKAN_INTERNAL_DefaultBufferUsageMode.exit

8:                                                ; preds = %4
  %9 = and i32 %.val, 2
  %.not6.i = icmp eq i32 %9, 0
  br i1 %.not6.i, label %10, label %VULKAN_INTERNAL_DefaultBufferUsageMode.exit

10:                                               ; preds = %8
  %11 = and i32 %.val, 4
  %.not7.i = icmp eq i32 %11, 0
  br i1 %.not7.i, label %12, label %VULKAN_INTERNAL_DefaultBufferUsageMode.exit

12:                                               ; preds = %10
  %13 = and i32 %.val, 8
  %.not8.i = icmp eq i32 %13, 0
  br i1 %.not8.i, label %14, label %VULKAN_INTERNAL_DefaultBufferUsageMode.exit

14:                                               ; preds = %12
  %15 = and i32 %.val, 16
  %.not9.i = icmp eq i32 %15, 0
  br i1 %.not9.i, label %16, label %VULKAN_INTERNAL_DefaultBufferUsageMode.exit

16:                                               ; preds = %14
  %17 = and i32 %.val, 32
  %.not10.i = icmp eq i32 %17, 0
  br i1 %.not10.i, label %18, label %VULKAN_INTERNAL_DefaultBufferUsageMode.exit

18:                                               ; preds = %16
  tail call void (i32, ptr, ...) @SDL_LogError_REAL(i32 noundef 9, ptr noundef nonnull @.str.212) #13
  br label %VULKAN_INTERNAL_DefaultBufferUsageMode.exit

VULKAN_INTERNAL_DefaultBufferUsageMode.exit:      ; preds = %4, %8, %10, %12, %14, %16, %18
  %.0.i = phi i64 [ 0, %18 ], [ 0, %4 ], [ 1, %8 ], [ 2, %10 ], [ 3, %12 ], [ 4, %14 ], [ 5, %16 ]
  call void @llvm.lifetime.start.p0(i64 56, ptr nonnull %5) #13
  store i32 44, ptr %5, align 8
  %19 = getelementptr inbounds nuw i8, ptr %5, i64 8
  %20 = getelementptr inbounds nuw i8, ptr %5, i64 16
  %21 = getelementptr inbounds nuw i8, ptr %5, i64 24
  store i64 0, ptr %19, align 8
  store i32 -1, ptr %21, align 8
  %22 = getelementptr inbounds nuw i8, ptr %5, i64 28
  store i32 -1, ptr %22, align 4
  %23 = getelementptr inbounds nuw i8, ptr %3, i64 16
  %24 = load ptr, ptr %23, align 8
  %25 = getelementptr inbounds nuw i8, ptr %5, i64 32
  store ptr %24, ptr %25, align 8
  %26 = getelementptr inbounds nuw i8, ptr %5, i64 40
  store i64 0, ptr %26, align 8
  %27 = getelementptr inbounds nuw i8, ptr %3, i64 40
  %28 = load i64, ptr %27, align 8
  %29 = getelementptr inbounds nuw i8, ptr %5, i64 48
  store i64 %28, ptr %29, align 8
  %30 = zext nneg i32 %2 to i64
  %switch.gep = getelementptr inbounds nuw [8 x i32], ptr @switch.table.VULKAN_INTERNAL_BufferTransitionToDefaultUsage, i64 0, i64 %30
  %switch.load = load i32, ptr %switch.gep, align 4
  %31 = zext nneg i32 %2 to i64
  %switch.gep5 = getelementptr inbounds nuw [8 x i32], ptr @switch.table.VULKAN_INTERNAL_BufferTransitionToDefaultUsage.41, i64 0, i64 %31
  %switch.load6 = load i32, ptr %switch.gep5, align 4
  store i32 %switch.load, ptr %20, align 8
  %switch.gep7 = getelementptr inbounds nuw [6 x i32], ptr @switch.table.VULKAN_INTERNAL_BufferTransitionToDefaultUsage.42, i64 0, i64 %.0.i
  %switch.load8 = load i32, ptr %switch.gep7, align 4
  %switch.gep9 = getelementptr inbounds nuw [6 x i32], ptr @switch.table.VULKAN_INTERNAL_BufferTransitionToDefaultUsage.43, i64 0, i64 %.0.i
  %switch.load10 = load i32, ptr %switch.gep9, align 4
  %32 = getelementptr inbounds nuw i8, ptr %5, i64 20
  store i32 %switch.load8, ptr %32, align 4
  %33 = getelementptr inbounds nuw i8, ptr %0, i64 2952
  %34 = load ptr, ptr %33, align 8
  %35 = getelementptr inbounds nuw i8, ptr %1, i64 136
  %36 = load ptr, ptr %35, align 8
  call void %34(ptr noundef %36, i32 noundef %switch.load6, i32 noundef %switch.load10, i32 noundef 0, i32 noundef 0, ptr noundef null, i32 noundef 1, ptr noundef nonnull %5, i32 noundef 0, ptr noundef null) #13
  %37 = getelementptr inbounds nuw i8, ptr %3, i64 52
  store i8 1, ptr %37, align 4
  call void @llvm.lifetime.end.p0(i64 56, ptr nonnull %5) #13
  ret void
}